; Function Attrs: mustprogress nofree norecurse nosync nounwind willreturn memory(argmem: write) uwtable
define internal noundef zeroext i1 @"_ZNSt17_Function_handlerIFvRN4llvm11PassManagerINS0_6ModuleENS0_15AnalysisManagerIS2_JEEEJEEENS0_17OptimizationLevelEEZN12_GLOBAL__N_118EmitAssemblyHelper23RunOptimizationPipelineEN5clang13BackendActionERSt10unique_ptrINS0_17raw_pwrite_streamESt14default_deleteISE_EERSD_INS0_14ToolOutputFileESF_ISJ_EEPNSB_15BackendConsumerEE3$_5E10_M_managerERSt9_Any_dataRKSR_St18_Manager_operation"(ptr noundef nonnull writeonly align 8 captures(none) dereferenceable(16) %0, ptr noundef nonnull align 8 dereferenceable(16) %1, i32 noundef %2) #13 align 2 {
  switch i32 %2, label %"_ZNSt14_Function_base13_Base_managerIZN12_GLOBAL__N_118EmitAssemblyHelper23RunOptimizationPipelineEN5clang13BackendActionERSt10unique_ptrIN4llvm17raw_pwrite_streamESt14default_deleteIS7_EERS5_INS6_14ToolOutputFileES8_ISC_EEPNS3_15BackendConsumerEE3$_5E10_M_managerERSt9_Any_dataRKSK_St18_Manager_operation.exit" [
    i32 1, label %"_ZNSt14_Function_base13_Base_managerIZN12_GLOBAL__N_118EmitAssemblyHelper23RunOptimizationPipelineEN5clang13BackendActionERSt10unique_ptrIN4llvm17raw_pwrite_streamESt14default_deleteIS7_EERS5_INS6_14ToolOutputFileES8_ISC_EEPNS3_15BackendConsumerEE3$_5E10_M_managerERSt9_Any_dataRKSK_St18_Manager_operation.exit.sink.split"
    i32 0, label %4
  ]

4:                                                ; preds = %3
  br label %"_ZNSt14_Function_base13_Base_managerIZN12_GLOBAL__N_118EmitAssemblyHelper23RunOptimizationPipelineEN5clang13BackendActionERSt10unique_ptrIN4llvm17raw_pwrite_streamESt14default_deleteIS7_EERS5_INS6_14ToolOutputFileES8_ISC_EEPNS3_15BackendConsumerEE3$_5E10_M_managerERSt9_Any_dataRKSK_St18_Manager_operation.exit.sink.split"

"_ZNSt14_Function_base13_Base_managerIZN12_GLOBAL__N_118EmitAssemblyHelper23RunOptimizationPipelineEN5clang13BackendActionERSt10unique_ptrIN4llvm17raw_pwrite_streamESt14default_deleteIS7_EERS5_INS6_14ToolOutputFileES8_ISC_EEPNS3_15BackendConsumerEE3$_5E10_M_managerERSt9_Any_dataRKSK_St18_Manager_operation.exit.sink.split": ; preds = %3, %4
  %.sink = phi ptr [ null, %4 ], [ %1, %3 ]
  store ptr %.sink, ptr %0, align 8
  br label %"_ZNSt14_Function_base13_Base_managerIZN12_GLOBAL__N_118EmitAssemblyHelper23RunOptimizationPipelineEN5clang13BackendActionERSt10unique_ptrIN4llvm17raw_pwrite_streamESt14default_deleteIS7_EERS5_INS6_14ToolOutputFileES8_ISC_EEPNS3_15BackendConsumerEE3$_5E10_M_managerERSt9_Any_dataRKSK_St18_Manager_operation.exit"

"_ZNSt14_Function_base13_Base_managerIZN12_GLOBAL__N_118EmitAssemblyHelper23RunOptimizationPipelineEN5clang13BackendActionERSt10unique_ptrIN4llvm17raw_pwrite_streamESt14default_deleteIS7_EERS5_INS6_14ToolOutputFileES8_ISC_EEPNS3_15BackendConsumerEE3$_5E10_M_managerERSt9_Any_dataRKSK_St18_Manager_operation.exit": ; preds = %"_ZNSt14_Function_base13_Base_managerIZN12_GLOBAL__N_118EmitAssemblyHelper23RunOptimizationPipelineEN5clang13BackendActionERSt10unique_ptrIN4llvm17raw_pwrite_streamESt14default_deleteIS7_EERS5_INS6_14ToolOutputFileES8_ISC_EEPNS3_15BackendConsumerEE3$_5E10_M_managerERSt9_Any_dataRKSK_St18_Manager_operation.exit.sink.split", %3
  ret i1 false
}